target datalayout = "e-m:e-p270:32:32-p271:32:32-p272:64:64-i64:64-i128:128-f80:128-n8:16:32:64-S128"
target triple = "x86_64-pc-linux-gnu"

@state_buffer_table = internal global ptr null, align 8
@sip_sdp_state_identifier = internal constant [20 x i8] c"\FB\E5\07\DF\E5\E6\AAZ\F2\AB\B9\14\CE\AA\05\F9\9C\E6\1B\A5", align 16
@presence_state_identifier = internal constant [20 x i8] c"\D9B)}\0B\B3\8F\C0\1DgA\D6\B3\B4\81W\AC\8E\1B\E0", align 16

; Function Attrs: alwaysinline nounwind
define internal ptr @memcpy.inline(ptr noalias %0, ptr noalias %1, i64 %2) #6 {
  %4 = alloca ptr, align 8
  %5 = alloca ptr, align 8
  %6 = alloca i64, align 8
  store ptr %0, ptr %4, align 8
  store ptr %1, ptr %5, align 8
  store i64 %2, ptr %6, align 8
  %7 = load ptr, ptr %4, align 8
  %8 = load ptr, ptr %5, align 8
  %9 = load i64, ptr %6, align 8
  %10 = load ptr, ptr %4, align 8
  %11 = call i64 @llvm.objectsize.i64.p0(ptr %10, i1 false, i1 true, i1 true)
  %12 = call ptr @__memcpy_chk(ptr noundef %7, ptr noundef %8, i64 noundef %9, i64 noundef %11) #10
  ret ptr %12
}

; Function Attrs: alwaysinline nounwind
define internal ptr @memset.inline(ptr %0, i32 %1, i64 %2) #6 {
  %4 = alloca ptr, align 8
  %5 = alloca i32, align 4
  %6 = alloca i64, align 8
  store ptr %0, ptr %4, align 8
  store i32 %1, ptr %5, align 4
  store i64 %2, ptr %6, align 8
  %7 = load ptr, ptr %4, align 8
  %8 = load i32, ptr %5, align 4
  %9 = load i64, ptr %6, align 8
  %10 = load ptr, ptr %4, align 8
  %11 = call i64 @llvm.objectsize.i64.p0(ptr %10, i1 false, i1 true, i1 true)
  %12 = call ptr @__memset_chk(ptr noundef %7, i32 noundef %8, i64 noundef %9, i64 noundef %11) #10
  ret ptr %12
}

; Function Attrs: null_pointer_is_valid sspstrong uwtable
define internal void @sigcomp_init_udvm() #0 {
  %1 = alloca ptr, align 8
  %2 = alloca ptr, align 8
  %3 = alloca ptr, align 8
  call void @llvm.lifetime.start.p0(i64 8, ptr %1) #10
  call void @llvm.lifetime.start.p0(i64 8, ptr %2) #10
  call void @llvm.lifetime.start.p0(i64 8, ptr %3) #10
  %4 = call ptr @g_hash_table_new_full(ptr noundef @g_str_hash, ptr noundef @g_str_equal, ptr noundef @g_free, ptr noundef @g_free)
  store ptr %4, ptr @state_buffer_table, align 8
  %5 = call noalias ptr @g_malloc(i64 noundef 4844) #12
  store ptr %5, ptr %2, align 8
  %6 = call ptr @bytes_to_str_maxlen(ptr noundef null, ptr noundef @sip_sdp_state_identifier, i64 noundef 6, i64 noundef 36)
  store ptr %6, ptr %1, align 8
  %7 = load ptr, ptr %2, align 8
  %8 = call ptr @memset.inline(ptr noundef %7, i32 noundef 0, i64 noundef 8) #10
  %9 = load ptr, ptr %2, align 8
  %10 = getelementptr i8, ptr %9, i64 0
  store i8 18, ptr %10, align 1
  %11 = load ptr, ptr %2, align 8
  %12 = getelementptr i8, ptr %11, i64 1
  store i8 -28, ptr %12, align 1
  %13 = load ptr, ptr %2, align 8
  %14 = getelementptr i8, ptr %13, i64 8
  %15 = call ptr @memcpy.inline(ptr noundef %14, ptr noundef @sip_sdp_static_dictionaty_for_sigcomp, i64 noundef 4836) #10
  %16 = load ptr, ptr @state_buffer_table, align 8
  %17 = load ptr, ptr %1, align 8
  %18 = call noalias ptr @g_strdup(ptr noundef %17)
  %19 = load ptr, ptr %2, align 8
  %20 = call i32 @g_hash_table_insert(ptr noundef %16, ptr noundef %18, ptr noundef %19)
  %21 = load ptr, ptr %1, align 8
  call void @wmem_free(ptr noundef null, ptr noundef %21)
  %22 = call noalias ptr @g_malloc(i64 noundef 3483) #12
  store ptr %22, ptr %3, align 8
  %23 = call ptr @bytes_to_str_maxlen(ptr noundef null, ptr noundef @presence_state_identifier, i64 noundef 6, i64 noundef 36)
  store ptr %23, ptr %1, align 8
  %24 = load ptr, ptr %3, align 8
  %25 = call ptr @memset.inline(ptr noundef %24, i32 noundef 0, i64 noundef 8) #10
  %26 = load ptr, ptr %3, align 8
  %27 = getelementptr i8, ptr %26, i64 0
  store i8 13, ptr %27, align 1
  %28 = load ptr, ptr %3, align 8
  %29 = getelementptr i8, ptr %28, i64 1
  store i8 -109, ptr %29, align 1
  %30 = load ptr, ptr %3, align 8
  %31 = getelementptr i8, ptr %30, i64 8
  %32 = call ptr @memcpy.inline(ptr noundef %31, ptr noundef @presence_static_dictionary_for_sigcomp, i64 noundef 3475) #10
  %33 = load ptr, ptr @state_buffer_table, align 8
  %34 = load ptr, ptr %1, align 8
  %35 = call noalias ptr @g_strdup(ptr noundef %34)
  %36 = load ptr, ptr %3, align 8
  %37 = call i32 @g_hash_table_insert(ptr noundef %33, ptr noundef %35, ptr noundef %36)
  %38 = load ptr, ptr %1, align 8
  call void @wmem_free(ptr noundef null, ptr noundef %38)
  call void @llvm.lifetime.end.p0(i64 8, ptr %3) #10
  call void @llvm.lifetime.end.p0(i64 8, ptr %2) #10
  call void @llvm.lifetime.end.p0(i64 8, ptr %1) #10
  ret void
}