; Function Attrs: null_pointer_is_valid sspstrong uwtable
define internal void @sigcomp_init_udvm() #0 {
  %1 = tail call ptr @g_hash_table_new_full(ptr noundef nonnull @g_str_hash, ptr noundef nonnull @g_str_equal, ptr noundef nonnull @g_free, ptr noundef nonnull @g_free)
  store ptr %1, ptr @state_buffer_table, align 8
  %2 = tail call noalias dereferenceable_or_null(4844) ptr @g_malloc(i64 noundef 4844) #10
  %3 = tail call ptr @bytes_to_str_maxlen(ptr noundef null, ptr noundef nonnull @sip_sdp_state_identifier, i64 noundef 6, i64 noundef 36)
  store i64 58386, ptr %2, align 1
  %4 = getelementptr i8, ptr %2, i64 8
  tail call void @llvm.memcpy.p0.p0.i64(ptr noundef align 1 dereferenceable(4836) %4, ptr noundef nonnull align 16 dereferenceable(4836) @sip_sdp_static_dictionaty_for_sigcomp, i64 noundef 4836, i1 noundef false) #11
  %5 = load ptr, ptr @state_buffer_table, align 8
  %6 = tail call noalias ptr @g_strdup(ptr noundef %3)
  %7 = tail call i32 @g_hash_table_insert(ptr noundef %5, ptr noundef %6, ptr noundef %2)
  tail call void @wmem_free(ptr noundef null, ptr noundef %3)
  %8 = tail call noalias dereferenceable_or_null(3483) ptr @g_malloc(i64 noundef 3483) #10
  %9 = tail call ptr @bytes_to_str_maxlen(ptr noundef null, ptr noundef nonnull @presence_state_identifier, i64 noundef 6, i64 noundef 36)
  store i64 37645, ptr %8, align 1
  %10 = getelementptr i8, ptr %8, i64 8
  tail call void @llvm.memcpy.p0.p0.i64(ptr noundef align 1 dereferenceable(3475) %10, ptr noundef nonnull align 16 dereferenceable(3475) @presence_static_dictionary_for_sigcomp, i64 noundef 3475, i1 noundef false) #11
  %11 = load ptr, ptr @state_buffer_table, align 8
  %12 = tail call noalias ptr @g_strdup(ptr noundef %9)
  %13 = tail call i32 @g_hash_table_insert(ptr noundef %11, ptr noundef %12, ptr noundef %8)
  tail call void @wmem_free(ptr noundef null, ptr noundef %9)
  ret void
}